target datalayout = "e-m:e-p270:32:32-p271:32:32-p272:64:64-i64:64-f80:128-n8:16:32:64-S128"
target triple = "x86_64-pc-linux-gnu"

@.str = private unnamed_addr constant [4 x i8] c"%d\0A\00", align 1
@.str.1 = private unnamed_addr constant [3 x i8] c"%s\00", align 1
@.str.2 = private unnamed_addr constant [3 x i8] c"NO\00", align 1
@.str.3 = private unnamed_addr constant [4 x i8] c"%s\0A\00", align 1

; Function Attrs: noinline nounwind uwtable
define dso_local i32 @count([6 x i8]* %0, i8* %1, i32* %2, i32 %3) #0 {
  %5 = alloca i32, align 4
  %6 = alloca [6 x i8]*, align 8
  %7 = alloca i8*, align 8
  %8 = alloca i32*, align 8
  %9 = alloca i32, align 4
  %10 = alloca i32, align 4
  store [6 x i8]* %0, [6 x i8]** %6, align 8
  store i8* %1, i8** %7, align 8
  store i32* %2, i32** %8, align 8
  store i32 %3, i32* %9, align 4
  store i32 0, i32* %10, align 4
  br label %11

11:                                               ; preds = %26, %4
  %12 = load i32, i32* %10, align 4
  %13 = load i32, i32* %9, align 4
  %14 = icmp slt i32 %12, %13
  br i1 %14, label %15, label %24

15:                                               ; preds = %11
  %16 = load [6 x i8]*, [6 x i8]** %6, align 8
  %17 = load i32, i32* %10, align 4
  %18 = sext i32 %17 to i64
  %19 = getelementptr inbounds [6 x i8], [6 x i8]* %16, i64 %18
  %20 = getelementptr inbounds [6 x i8], [6 x i8]* %19, i64 0, i64 0
  %21 = load i8*, i8** %7, align 8
  %22 = call i32 @strcmp(i8* %20, i8* %21) #4
  %23 = icmp ne i32 %22, 0
  br label %24

24:                                               ; preds = %15, %11
  %25 = phi i1 [ false, %11 ], [ %23, %15 ]
  br i1 %25, label %26, label %29

26:                                               ; preds = %24
  %27 = load i32, i32* %10, align 4
  %28 = add nsw i32 %27, 1
  store i32 %28, i32* %10, align 4
  br label %11

29:                                               ; preds = %24
  %30 = load i32, i32* %10, align 4
  %31 = load i32, i32* %9, align 4
  %32 = icmp slt i32 %30, %31
  br i1 %32, label %33, label %41

33:                                               ; preds = %29
  %34 = load i32*, i32** %8, align 8
  %35 = load i32, i32* %10, align 4
  %36 = sext i32 %35 to i64
  %37 = getelementptr inbounds i32, i32* %34, i64 %36
  %38 = load i32, i32* %37, align 4
  %39 = add nsw i32 %38, 1
  store i32 %39, i32* %37, align 4
  %40 = load i32, i32* %9, align 4
  store i32 %40, i32* %5, align 4
  br label %55

41:                                               ; preds = %29
  %42 = load [6 x i8]*, [6 x i8]** %6, align 8
  %43 = load i32, i32* %9, align 4
  %44 = sext i32 %43 to i64
  %45 = getelementptr inbounds [6 x i8], [6 x i8]* %42, i64 %44
  %46 = getelementptr inbounds [6 x i8], [6 x i8]* %45, i64 0, i64 0
  %47 = load i8*, i8** %7, align 8
  %48 = call i8* @strcpy(i8* %46, i8* %47) #5
  %49 = load i32*, i32** %8, align 8
  %50 = load i32, i32* %9, align 4
  %51 = sext i32 %50 to i64
  %52 = getelementptr inbounds i32, i32* %49, i64 %51
  store i32 1, i32* %52, align 4
  %53 = load i32, i32* %9, align 4
  %54 = add nsw i32 %53, 1
  store i32 %54, i32* %5, align 4
  br label %55

55:                                               ; preds = %41, %33
  %56 = load i32, i32* %5, align 4
  ret i32 %56
}

; Function Attrs: noinline nounwind uwtable
define dso_local void @main() #0 {
  %1 = alloca [301 x i8], align 16
  %2 = alloca [301 x [6 x i8]], align 16
  %3 = alloca [6 x i8], align 1
  %4 = alloca i32, align 4
  %5 = alloca i32, align 4
  %6 = alloca i32, align 4
  %7 = alloca i32, align 4
  %8 = alloca i32, align 4
  %9 = alloca i32, align 4
  %10 = alloca [301 x i32], align 16
  %11 = alloca i32, align 4
  %12 = call i32 (i8*, ...) @__isoc99_scanf(i8* getelementptr inbounds ([4 x i8], [4 x i8]* @.str, i64 0, i64 0), i32* %8)
  %13 = getelementptr inbounds [301 x i8], [301 x i8]* %1, i64 0, i64 0
  %14 = call i32 (i8*, ...) @__isoc99_scanf(i8* getelementptr inbounds ([3 x i8], [3 x i8]* @.str.1, i64 0, i64 0), i8* %13)
  %15 = getelementptr inbounds [301 x i8], [301 x i8]* %1, i64 0, i64 0
  %16 = call i64 @strlen(i8* %15) #4
  %17 = trunc i64 %16 to i32
  store i32 %17, i32* %7, align 4
  store i32 0, i32* %9, align 4
  store i32 0, i32* %4, align 4
  br label %18

18:                                               ; preds = %51, %0
  %19 = load i32, i32* %4, align 4
  %20 = load i32, i32* %7, align 4
  %21 = load i32, i32* %8, align 4
  %22 = sub nsw i32 %20, %21
  %23 = icmp sle i32 %19, %22
  br i1 %23, label %24, label %54

24:                                               ; preds = %18
  store i32 0, i32* %5, align 4
  br label %25

25:                                               ; preds = %39, %24
  %26 = load i32, i32* %5, align 4
  %27 = load i32, i32* %8, align 4
  %28 = icmp slt i32 %26, %27
  br i1 %28, label %29, label %42

29:                                               ; preds = %25
  %30 = load i32, i32* %4, align 4
  %31 = load i32, i32* %5, align 4
  %32 = add nsw i32 %30, %31
  %33 = sext i32 %32 to i64
  %34 = getelementptr inbounds [301 x i8], [301 x i8]* %1, i64 0, i64 %33
  %35 = load i8, i8* %34, align 1
  %36 = load i32, i32* %5, align 4
  %37 = sext i32 %36 to i64
  %38 = getelementptr inbounds [6 x i8], [6 x i8]* %3, i64 0, i64 %37
  store i8 %35, i8* %38, align 1
  br label %39

39:                                               ; preds = %29
  %40 = load i32, i32* %5, align 4
  %41 = add nsw i32 %40, 1
  store i32 %41, i32* %5, align 4
  br label %25

42:                                               ; preds = %25
  %43 = load i32, i32* %5, align 4
  %44 = sext i32 %43 to i64
  %45 = getelementptr inbounds [6 x i8], [6 x i8]* %3, i64 0, i64 %44
  store i8 0, i8* %45, align 1
  %46 = getelementptr inbounds [301 x [6 x i8]], [301 x [6 x i8]]* %2, i64 0, i64 0
  %47 = getelementptr inbounds [6 x i8], [6 x i8]* %3, i64 0, i64 0
  %48 = getelementptr inbounds [301 x i32], [301 x i32]* %10, i64 0, i64 0
  %49 = load i32, i32* %9, align 4
  %50 = call i32 @count([6 x i8]* %46, i8* %47, i32* %48, i32 %49)
  store i32 %50, i32* %9, align 4
  br label %51

51:                                               ; preds = %42
  %52 = load i32, i32* %4, align 4
  %53 = add nsw i32 %52, 1
  store i32 %53, i32* %4, align 4
  br label %18

54:                                               ; preds = %18
  %55 = getelementptr inbounds [301 x i32], [301 x i32]* %10, i64 0, i64 0
  %56 = load i32, i32* %55, align 16
  store i32 %56, i32* %11, align 4
  store i32 0, i32* %4, align 4
  br label %57

57:                                               ; preds = %74, %54
  %58 = load i32, i32* %4, align 4
  %59 = load i32, i32* %9, align 4
  %60 = icmp slt i32 %58, %59
  br i1 %60, label %61, label %77

61:                                               ; preds = %57
  %62 = load i32, i32* %4, align 4
  %63 = sext i32 %62 to i64
  %64 = getelementptr inbounds [301 x i32], [301 x i32]* %10, i64 0, i64 %63
  %65 = load i32, i32* %64, align 4
  %66 = load i32, i32* %11, align 4
  %67 = icmp sge i32 %65, %66
  br i1 %67, label %68, label %73

68:                                               ; preds = %61
  %69 = load i32, i32* %4, align 4
  %70 = sext i32 %69 to i64
  %71 = getelementptr inbounds [301 x i32], [301 x i32]* %10, i64 0, i64 %70
  %72 = load i32, i32* %71, align 4
  store i32 %72, i32* %11, align 4
  br label %73

73:                                               ; preds = %68, %61
  br label %74

74:                                               ; preds = %73
  %75 = load i32, i32* %4, align 4
  %76 = add nsw i32 %75, 1
  store i32 %76, i32* %4, align 4
  br label %57

77:                                               ; preds = %57
  %78 = load i32, i32* %11, align 4
  %79 = icmp eq i32 %78, 1
  br i1 %79, label %80, label %82

80:                                               ; preds = %77
  %81 = call i32 (i8*, ...) @printf(i8* getelementptr inbounds ([3 x i8], [3 x i8]* @.str.2, i64 0, i64 0))
  br label %109

82:                                               ; preds = %77
  %83 = load i32, i32* %11, align 4
  %84 = call i32 (i8*, ...) @printf(i8* getelementptr inbounds ([4 x i8], [4 x i8]* @.str, i64 0, i64 0), i32 %83)
  store i32 0, i32* %6, align 4
  br label %85

85:                                               ; preds = %105, %82
  %86 = load i32, i32* %6, align 4
  %87 = load i32, i32* %7, align 4
  %88 = load i32, i32* %8, align 4
  %89 = sub nsw i32 %87, %88
  %90 = icmp slt i32 %86, %89
  br i1 %90, label %91, label %108

91:                                               ; preds = %85
  %92 = load i32, i32* %6, align 4
  %93 = sext i32 %92 to i64
  %94 = getelementptr inbounds [301 x i32], [301 x i32]* %10, i64 0, i64 %93
  %95 = load i32, i32* %94, align 4
  %96 = load i32, i32* %11, align 4
  %97 = icmp eq i32 %95, %96
  br i1 %97, label %98, label %104

98:                                               ; preds = %91
  %99 = load i32, i32* %6, align 4
  %100 = sext i32 %99 to i64
  %101 = getelementptr inbounds [301 x [6 x i8]], [301 x [6 x i8]]* %2, i64 0, i64 %100
  %102 = getelementptr inbounds [6 x i8], [6 x i8]* %101, i64 0, i64 0
  %103 = call i32 (i8*, ...) @printf(i8* getelementptr inbounds ([4 x i8], [4 x i8]* @.str.3, i64 0, i64 0), i8* %102)
  br label %104

104:                                              ; preds = %98, %91
  br label %105

105:                                              ; preds = %104
  %106 = load i32, i32* %6, align 4
  %107 = add nsw i32 %106, 1
  store i32 %107, i32* %6, align 4
  br label %85

108:                                              ; preds = %85
  br label %109

109:                                              ; preds = %108, %80
  ret void
}